; Function Attrs: nounwind uwtable
define void @php_info_print_table_start() local_unnamed_addr #0 {
  %1 = load i32, ptr getelementptr inbounds (%struct._sapi_module_struct, ptr @sapi_module, i64 0, i32 32), align 8
  %.not = icmp eq i32 %1, 0
  br i1 %.not, label %2, label %4

2:                                                ; preds = %0
  %3 = tail call i64 @php_output_write(ptr noundef nonnull @.str.112, i64 noundef 8) #14
  br label %6

4:                                                ; preds = %0
  %5 = tail call i64 @php_output_write(ptr noundef nonnull @.str.65, i64 noundef 1) #14
  br label %6

6:                                                ; preds = %4, %2
  ret void
}